target datalayout = "e-m:e-p270:32:32-p271:32:32-p272:64:64-i64:64-i128:128-f80:128-n8:16:32:64-S128"
target triple = "x86_64-pc-linux-gnu"

%struct.lean_object = type { i32, i32 }
%struct.lean_closure_object = type { %struct.lean_object, ptr, i16, i16, [0 x ptr] }

; Function Attrs: inlinehint nounwind uwtable
define internal i64 @lean_align(i64 noundef %0, i64 noundef %1) #0 {
  %3 = alloca i64, align 8
  %4 = alloca i64, align 8
  store i64 %0, ptr %3, align 8, !tbaa !8
  store i64 %1, ptr %4, align 8, !tbaa !8
  %5 = load i64, ptr %3, align 8, !tbaa !8
  %6 = load i64, ptr %4, align 8, !tbaa !8
  %7 = udiv i64 %5, %6
  %8 = load i64, ptr %4, align 8, !tbaa !8
  %9 = mul i64 %7, %8
  %10 = load i64, ptr %4, align 8, !tbaa !8
  %11 = load i64, ptr %3, align 8, !tbaa !8
  %12 = load i64, ptr %4, align 8, !tbaa !8
  %13 = urem i64 %11, %12
  %14 = icmp ne i64 %13, 0
  %15 = zext i1 %14 to i32
  %16 = sext i32 %15 to i64
  %17 = mul i64 %10, %16
  %18 = add i64 %9, %17
  ret i64 %18
}

; Function Attrs: inlinehint nounwind uwtable
define internal void @lean_set_st_header(ptr noundef %0, i32 noundef %1, i32 noundef %2) #0 {
  %4 = alloca ptr, align 8
  %5 = alloca i32, align 4
  %6 = alloca i32, align 4
  store ptr %0, ptr %4, align 8, !tbaa !4
  store i32 %1, ptr %5, align 4, !tbaa !13
  store i32 %2, ptr %6, align 4, !tbaa !13
  %7 = load ptr, ptr %4, align 8, !tbaa !4
  %8 = getelementptr inbounds nuw %struct.lean_object, ptr %7, i32 0, i32 0
  store i32 1, ptr %8, align 4, !tbaa !15
  %9 = load i32, ptr %5, align 4, !tbaa !13
  %10 = load ptr, ptr %4, align 8, !tbaa !4
  %11 = getelementptr inbounds nuw %struct.lean_object, ptr %10, i32 0, i32 1
  %12 = load i32, ptr %11, align 4
  %13 = and i32 %9, 255
  %14 = shl i32 %13, 24
  %15 = and i32 %12, 16777215
  %16 = or i32 %15, %14
  store i32 %16, ptr %11, align 4
  %17 = load i32, ptr %6, align 4, !tbaa !13
  %18 = load ptr, ptr %4, align 8, !tbaa !4
  %19 = getelementptr inbounds nuw %struct.lean_object, ptr %18, i32 0, i32 1
  %20 = load i32, ptr %19, align 4
  %21 = and i32 %17, 255
  %22 = shl i32 %21, 16
  %23 = and i32 %20, -16711681
  %24 = or i32 %23, %22
  store i32 %24, ptr %19, align 4
  ret void
}

; Function Attrs: inlinehint nounwind uwtable
define internal ptr @lean_alloc_small_object(i32 noundef %0) #0 {
  %2 = alloca i32, align 4
  %3 = alloca ptr, align 8
  %4 = alloca ptr, align 8
  store i32 %0, ptr %2, align 4, !tbaa !13
  call void @lean_inc_heartbeat()
  %5 = load i32, ptr %2, align 4, !tbaa !13
  %6 = zext i32 %5 to i64
  %7 = call i64 @lean_align(i64 noundef %6, i64 noundef 8)
  %8 = trunc i64 %7 to i32
  store i32 %8, ptr %2, align 4, !tbaa !13
  call void @llvm.lifetime.start.p0(i64 8, ptr %3) #8
  %9 = load i32, ptr %2, align 4, !tbaa !13
  %10 = zext i32 %9 to i64
  %11 = call noalias ptr @mi_malloc_small(i64 noundef %10)
  store ptr %11, ptr %3, align 8, !tbaa !4
  %12 = load ptr, ptr %3, align 8, !tbaa !4
  %13 = icmp eq ptr %12, null
  br i1 %13, label %14, label %15

14:                                               ; preds = %1
  call void @lean_internal_panic_out_of_memory() #7
  unreachable

15:                                               ; preds = %1
  call void @llvm.lifetime.start.p0(i64 8, ptr %4) #8
  %16 = load ptr, ptr %3, align 8, !tbaa !4
  store ptr %16, ptr %4, align 8, !tbaa !4
  %17 = load i32, ptr %2, align 4, !tbaa !13
  %18 = load ptr, ptr %4, align 8, !tbaa !4
  %19 = getelementptr inbounds nuw %struct.lean_object, ptr %18, i32 0, i32 1
  %20 = load i32, ptr %19, align 4
  %21 = and i32 %17, 65535
  %22 = and i32 %20, -65536
  %23 = or i32 %22, %21
  store i32 %23, ptr %19, align 4
  %24 = load ptr, ptr %4, align 8, !tbaa !4
  call void @llvm.lifetime.end.p0(i64 8, ptr %4) #8
  call void @llvm.lifetime.end.p0(i64 8, ptr %3) #8
  ret ptr %24
}

; Function Attrs: inlinehint nounwind uwtable
define internal ptr @lean_alloc_closure(ptr noundef %0, i32 noundef %1, i32 noundef %2) #0 {
  %4 = alloca ptr, align 8
  %5 = alloca i32, align 4
  %6 = alloca i32, align 4
  %7 = alloca ptr, align 8
  store ptr %0, ptr %4, align 8, !tbaa !4
  store i32 %1, ptr %5, align 4, !tbaa !13
  store i32 %2, ptr %6, align 4, !tbaa !13
  call void @llvm.lifetime.start.p0(i64 8, ptr %7) #8
  %8 = load i32, ptr %6, align 4, !tbaa !13
  %9 = zext i32 %8 to i64
  %10 = mul i64 8, %9
  %11 = add i64 24, %10
  %12 = trunc i64 %11 to i32
  %13 = call ptr @lean_alloc_small_object(i32 noundef %12)
  store ptr %13, ptr %7, align 8, !tbaa !4
  %14 = load ptr, ptr %7, align 8, !tbaa !4
  call void @lean_set_st_header(ptr noundef %14, i32 noundef 245, i32 noundef 0)
  %15 = load ptr, ptr %4, align 8, !tbaa !4
  %16 = load ptr, ptr %7, align 8, !tbaa !4
  %17 = getelementptr inbounds nuw %struct.lean_closure_object, ptr %16, i32 0, i32 1
  store ptr %15, ptr %17, align 8, !tbaa !4
  %18 = load i32, ptr %5, align 4, !tbaa !13
  %19 = trunc i32 %18 to i16
  %20 = load ptr, ptr %7, align 8, !tbaa !4
  %21 = getelementptr inbounds nuw %struct.lean_closure_object, ptr %20, i32 0, i32 2
  store i16 %19, ptr %21, align 8, !tbaa !17
  %22 = load i32, ptr %6, align 4, !tbaa !13
  %23 = trunc i32 %22 to i16
  %24 = load ptr, ptr %7, align 8, !tbaa !4
  %25 = getelementptr inbounds nuw %struct.lean_closure_object, ptr %24, i32 0, i32 3
  store i16 %23, ptr %25, align 2, !tbaa !17
  %26 = load ptr, ptr %7, align 8, !tbaa !4
  call void @llvm.lifetime.end.p0(i64 8, ptr %7) #8
  ret ptr %26
}

; Function Attrs: nounwind uwtable
define internal ptr @_init_l_Lean_Elab_WF_GuessLex_isNatCmp___lambda__6___closed__2() #2 {
  %1 = alloca ptr, align 8
  br label %2

2:                                                ; preds = %0
  call void @llvm.lifetime.start.p0(i64 8, ptr %1) #8
  %3 = call ptr @lean_alloc_closure(ptr noundef @l_Lean_Elab_WF_GuessLex_isNatCmp___lambda__5___boxed, i32 noundef 6, i32 noundef 0)
  store ptr %3, ptr %1, align 8, !tbaa !4
  %4 = load ptr, ptr %1, align 8, !tbaa !4
  call void @llvm.lifetime.end.p0(i64 8, ptr %1) #8
  ret ptr %4
}